Certificate:
    Data:
        Version: 3 (0x2)
        Serial Number: 1 (0x1)
        Signature Algorithm: sha256WithRSAEncryption
        Issuer: C=FR, ST=Paris, L=Paris, O=FranceConnect, OU=MongoDB-Instance, CN=Easy-RSA CA/emailAddress=contact@franceconnect.gouv.fr
        Validity
            Not Before: Aug 21 07:40:30 2020 GMT
            Not After : Aug 19 07:40:30 2030 GMT
        Subject: C=FR, ST=Paris, L=Paris, O=FranceConnect, OU=MongoDB-Instance, CN=mdb-instance-0/emailAddress=contact@franceconnect.gouv.fr
        Subject Public Key Info:
            Public Key Algorithm: rsaEncryption
                RSA Public-Key: (4096 bit)
                Modulus:
                    00:cc:1f:41:90:a8:75:e0:bc:dd:02:85:96:0c:02:
                    a4:e6:11:45:29:88:03:1c:54:35:cf:1c:43:df:f7:
                    eb:1f:07:2f:f9:25:39:04:20:82:30:2f:9b:13:66:
                    e9:ca:a7:16:7f:80:bc:87:be:3c:39:81:35:60:50:
                    3d:6b:f3:43:df:43:e5:7e:72:ff:a9:3d:b0:c6:bb:
                    50:66:7f:39:e8:e0:10:27:ef:9e:23:b1:7d:02:7a:
                    a8:63:84:ee:5c:5f:fe:90:1c:da:62:95:11:ef:16:
                    86:2c:36:78:34:1f:35:54:91:f2:be:bb:c8:4a:02:
                    e8:fa:a7:1a:41:2a:55:6e:29:92:9d:30:df:ab:f7:
                    86:2f:8c:a1:61:6d:d5:76:f5:4c:2e:eb:fc:9b:56:
                    cf:c7:de:b6:da:1a:f3:e2:99:6c:8e:1c:cf:c8:43:
                    9b:bc:18:6b:d9:a6:20:f9:63:e0:74:9d:2d:42:09:
                    f0:ef:b7:a3:ff:2f:f3:e8:e8:7e:01:09:27:56:45:
                    08:dc:d7:02:e2:47:54:b4:80:96:de:5e:b8:f5:92:
                    ca:b3:e5:42:9c:99:c4:23:80:d9:31:34:7e:73:62:
                    67:5f:c6:6b:2b:5f:1c:6c:e9:e5:aa:bb:c7:bd:18:
                    df:f3:45:63:e5:6f:0c:59:0a:6e:47:5a:02:0a:f0:
                    f8:fa:8c:9b:49:5f:2b:de:67:dd:8f:cf:ad:60:f5:
                    d3:48:5f:c7:16:da:dc:09:92:39:cb:0e:40:5e:c5:
                    4b:f8:1b:54:43:2c:97:35:fe:47:63:6f:e3:e5:16:
                    15:c3:4d:e4:86:09:97:2e:b8:10:a0:23:29:eb:3a:
                    ef:01:87:d2:09:77:1f:b8:93:27:d2:09:f6:bc:bb:
                    04:d5:10:9c:4b:c6:d0:ba:3f:c5:8e:25:68:66:6f:
                    8e:36:0d:f2:f5:22:96:de:db:0f:f8:f1:a1:3d:97:
                    f0:78:21:9d:09:f5:51:e4:fd:f7:ea:fe:f1:5f:f3:
                    11:50:51:98:a0:15:9b:17:4f:9d:1f:59:b6:71:96:
                    06:25:37:e8:16:7a:29:d0:95:f6:72:f7:c2:d1:0a:
                    ac:96:f4:3f:98:0f:62:df:ab:1e:28:de:99:93:c9:
                    ec:e5:ff:71:10:52:cc:89:6a:5b:c8:10:e5:85:40:
                    3e:06:1e:4e:ff:bf:cd:ab:10:12:70:65:6d:f0:d3:
                    92:85:48:14:f9:cc:15:a1:74:9b:0a:77:c1:f9:4d:
                    82:ec:5b:7e:81:7c:0a:29:7c:5e:67:7e:86:34:1b:
                    2a:1e:5a:7d:45:bc:0f:01:10:92:c9:a2:ae:da:a5:
                    0e:1b:52:43:b2:98:d0:64:c3:4a:9f:e1:ef:05:16:
                    ea:e4:dd
                Exponent: 65537 (0x10001)
        X509v3 extensions:
            X509v3 Basic Constraints: 
                CA:FALSE
            X509v3 Subject Key Identifier: 
                9E:75:08:E3:8E:CB:41:53:B3:C9:C1:98:B4:D6:3C:16:A5:6A:97:D0
            X509v3 Authority Key Identifier: 
                keyid:DB:A2:0E:D6:E5:CA:40:EC:FD:3D:B0:4E:67:D6:9F:A4:9E:6C:6B:D9
                DirName:/C=FR/ST=Paris/L=Paris/O=FranceConnect/OU=MongoDB-Instance/CN=Easy-RSA CA/emailAddress=contact@franceconnect.gouv.fr
                serial:13:D8:8D:E6:84:95:46:9D:5A:8D:53:D5:F1:EF:A3:F8:1B:E6:F7:2B

            X509v3 Extended Key Usage: 
                TLS Web Server Authentication
            X509v3 Key Usage: 
                Digital Signature, Key Encipherment
            X509v3 Subject Alternative Name: 
                DNS:localhost, DNS:mdb-instance-0
    Signature Algorithm: sha256WithRSAEncryption
         37:05:42:f5:c6:46:20:7b:57:03:b4:43:93:3a:8d:aa:4d:de:
         c4:9a:46:0a:7e:1a:08:f7:12:7e:70:2b:de:43:6e:9e:a7:42:
         3c:f7:14:6b:88:38:19:b1:fc:9b:54:d6:f4:14:a8:52:f3:b4:
         e7:55:3b:30:f9:75:a2:17:aa:31:7c:d1:32:8f:4d:8b:84:70:
         47:c4:a5:ff:9d:41:49:42:4d:5e:f8:46:f8:77:c5:7a:05:83:
         d8:25:24:d6:82:31:3b:26:60:e0:f6:38:30:d7:99:35:cb:ac:
         01:c9:b1:35:8d:03:bb:0b:7b:8b:a4:b3:d6:6b:c9:67:d2:f6:
         0c:52:d0:f1:fa:3f:ee:ac:54:cd:34:af:05:d2:21:c0:cd:c7:
         33:bb:07:25:80:0c:d6:b4:28:d9:be:c9:d3:0e:ee:15:82:49:
         b6:1c:c9:19:92:19:b6:f9:3a:1a:90:00:73:2d:d9:a0:3f:24:
         71:97:7d:60:90:14:5e:85:14:96:86:6f:52:8a:6c:d8:e1:ea:
         17:2b:75:67:a7:18:eb:ec:2c:ab:6f:2b:c9:36:ff:af:27:e9:
         4f:3f:a8:d8:08:37:65:e3:79:88:84:aa:c6:9f:6e:b9:27:39:
         67:3e:74:28:d5:c4:3d:88:9e:c5:a7:03:b5:1f:06:51:5f:7c:
         81:18:25:48:3d:7e:d9:a7:f4:48:e9:47:7b:1a:ee:aa:3e:b4:
         39:bb:ce:5a:85:50:9a:36:cc:54:13:b5:ab:84:a7:2f:5f:b2:
         2f:d7:35:1a:27:98:c6:bf:12:d0:6a:68:09:86:0a:b5:6a:f5:
         30:19:8f:7d:b7:f6:5a:bd:6b:bf:3c:31:36:45:04:e9:17:8f:
         51:52:03:e8:fb:9a:13:8a:6c:7e:3d:e1:cf:36:22:b4:0e:4f:
         dc:26:b6:ed:14:84:ae:83:6b:dc:04:82:75:8a:b2:d8:3b:13:
         54:ac:25:23:c9:41:97:4a:be:fc:29:7d:75:67:38:9e:d0:8d:
         41:93:69:62:77:02:67:96:f1:0c:57:18:04:9c:66:f4:5c:4d:
         2a:58:3c:2b:21:7e:b3:39:7e:f7:f7:9a:36:35:ec:5e:04:75:
         7a:54:e3:0c:8e:ba:cd:3d:be:57:12:24:29:9f:23:ac:28:8b:
         8e:1e:a2:b6:0a:40:15:93:28:bd:9d:f8:ad:eb:04:6b:a1:59:
         ce:92:b0:a6:ca:14:b5:47:14:d0:8c:85:e9:51:73:f1:3a:8f:
         aa:75:45:23:b9:ea:18:dc:8a:8a:68:15:c3:fe:d8:07:3c:b4:
         6e:55:12:59:b9:fc:6a:e1:e3:a5:b4:70:10:2c:04:12:46:d4:
         c1:1e:13:9e:31:20:9a:5b
-----BEGIN CERTIFICATE-----
MIIHJzCCBQ+gAwIBAgIBATANBgkqhkiG9w0BAQsFADCBpDELMAkGA1UEBhMCRlIx
DjAMBgNVBAgMBVBhcmlzMQ4wDAYDVQQHDAVQYXJpczEWMBQGA1UECgwNRnJhbmNl
Q29ubmVjdDEZMBcGA1UECwwQTW9uZ29EQi1JbnN0YW5jZTEUMBIGA1UEAwwLRWFz
eS1SU0EgQ0ExLDAqBgkqhkiG9w0BCQEWHWNvbnRhY3RAZnJhbmNlY29ubmVjdC5n
b3V2LmZyMB4XDTIwMDgyMTA3NDAzMFoXDTMwMDgxOTA3NDAzMFowgacxCzAJBgNV
BAYTAkZSMQ4wDAYDVQQIDAVQYXJpczEOMAwGA1UEBwwFUGFyaXMxFjAUBgNVBAoM
DUZyYW5jZUNvbm5lY3QxGTAXBgNVBAsMEE1vbmdvREItSW5zdGFuY2UxFzAVBgNV
BAMMDm1kYi1pbnN0YW5jZS0wMSwwKgYJKoZIhvcNAQkBFh1jb250YWN0QGZyYW5j
ZWNvbm5lY3QuZ291di5mcjCCAiIwDQYJKoZIhvcNAQEBBQADggIPADCCAgoCggIB
AMwfQZCodeC83QKFlgwCpOYRRSmIAxxUNc8cQ9/36x8HL/klOQQggjAvmxNm6cqn
Fn+AvIe+PDmBNWBQPWvzQ99D5X5y/6k9sMa7UGZ/OejgECfvniOxfQJ6qGOE7lxf
/pAc2mKVEe8Whiw2eDQfNVSR8r67yEoC6PqnGkEqVW4pkp0w36v3hi+MoWFt1Xb1
TC7r/JtWz8fettoa8+KZbI4cz8hDm7wYa9mmIPlj4HSdLUIJ8O+3o/8v8+jofgEJ
J1ZFCNzXAuJHVLSAlt5euPWSyrPlQpyZxCOA2TE0fnNiZ1/GaytfHGzp5aq7x70Y
3/NFY+VvDFkKbkdaAgrw+PqMm0lfK95n3Y/PrWD100hfxxba3AmSOcsOQF7FS/gb
VEMslzX+R2Nv4+UWFcNN5IYJly64EKAjKes67wGH0gl3H7iTJ9IJ9ry7BNUQnEvG
0Lo/xY4laGZvjjYN8vUilt7bD/jxoT2X8HghnQn1UeT99+r+8V/zEVBRmKAVmxdP
nR9ZtnGWBiU36BZ6KdCV9nL3wtEKrJb0P5gPYt+rHijemZPJ7OX/cRBSzIlqW8gQ
5YVAPgYeTv+/zasQEnBlbfDTkoVIFPnMFaF0mwp3wflNguxbfoF8Cil8Xmd+hjQb
Kh5afUW8DwEQksmirtqlDhtSQ7KY0GTDSp/h7wUW6uTdAgMBAAGjggFdMIIBWTAJ
BgNVHRMEAjAAMB0GA1UdDgQWBBSedQjjjstBU7PJwZi01jwWpWqX0DCB5AYDVR0j
BIHcMIHZgBTbog7W5cpA7P09sE5n1p+knmxr2aGBqqSBpzCBpDELMAkGA1UEBhMC
RlIxDjAMBgNVBAgMBVBhcmlzMQ4wDAYDVQQHDAVQYXJpczEWMBQGA1UECgwNRnJh
bmNlQ29ubmVjdDEZMBcGA1UECwwQTW9uZ29EQi1JbnN0YW5jZTEUMBIGA1UEAwwL
RWFzeS1SU0EgQ0ExLDAqBgkqhkiG9w0BCQEWHWNvbnRhY3RAZnJhbmNlY29ubmVj
dC5nb3V2LmZyghQT2I3mhJVGnVqNU9Xx76P4G+b3KzATBgNVHSUEDDAKBggrBgEF
BQcDATALBgNVHQ8EBAMCBaAwJAYDVR0RBB0wG4IJbG9jYWxob3N0gg5tZGItaW5z
dGFuY2UtMDANBgkqhkiG9w0BAQsFAAOCAgEANwVC9cZGIHtXA7RDkzqNqk3exJpG
Cn4aCPcSfnAr3kNunqdCPPcUa4g4GbH8m1TW9BSoUvO051U7MPl1oheqMXzRMo9N
i4RwR8Sl/51BSUJNXvhG+HfFegWD2CUk1oIxOyZg4PY4MNeZNcusAcmxNY0Duwt7
i6Sz1mvJZ9L2DFLQ8fo/7qxUzTSvBdIhwM3HM7sHJYAM1rQo2b7J0w7uFYJJthzJ
GZIZtvk6GpAAcy3ZoD8kcZd9YJAUXoUUloZvUops2OHqFyt1Z6cY6+wsq28ryTb/
ryfpTz+o2Ag3ZeN5iISqxp9uuSc5Zz50KNXEPYiexacDtR8GUV98gRglSD1+2af0
SOlHexruqj60ObvOWoVQmjbMVBO1q4SnL1+yL9c1GieYxr8S0GpoCYYKtWr1MBmP
fbf2Wr1rvzwxNkUE6RePUVID6PuaE4psfj3hzzYitA5P3Ca27RSEroNr3ASCdYqy
2DsTVKwlI8lBl0q+/Cl9dWc4ntCNQZNpYncCZ5bxDFcYBJxm9FxNKlg8KyF+szl+
9/eaNjXsXgR1elTjDI66zT2+VxIkKZ8jrCiLjh6itgpAFZMovZ34resEa6FZzpKw
psoUtUcU0IyF6VFz8TqPqnVFI7nqGNyKimgVw/7YBzy0blUSWbn8auHjpbRwECwE
EkbUwR4TnjEgmls=
-----END CERTIFICATE-----
-----BEGIN PRIVATE KEY-----
MIIJQwIBADANBgkqhkiG9w0BAQEFAASCCS0wggkpAgEAAoICAQDMH0GQqHXgvN0C
hZYMAqTmEUUpiAMcVDXPHEPf9+sfBy/5JTkEIIIwL5sTZunKpxZ/gLyHvjw5gTVg
UD1r80PfQ+V+cv+pPbDGu1Bmfzno4BAn754jsX0CeqhjhO5cX/6QHNpilRHvFoYs
Nng0HzVUkfK+u8hKAuj6pxpBKlVuKZKdMN+r94YvjKFhbdV29Uwu6/ybVs/H3rba
GvPimWyOHM/IQ5u8GGvZpiD5Y+B0nS1CCfDvt6P/L/Po6H4BCSdWRQjc1wLiR1S0
gJbeXrj1ksqz5UKcmcQjgNkxNH5zYmdfxmsrXxxs6eWqu8e9GN/zRWPlbwxZCm5H
WgIK8Pj6jJtJXyveZ92Pz61g9dNIX8cW2twJkjnLDkBexUv4G1RDLJc1/kdjb+Pl
FhXDTeSGCZcuuBCgIynrOu8Bh9IJdx+4kyfSCfa8uwTVEJxLxtC6P8WOJWhmb442
DfL1Ipbe2w/48aE9l/B4IZ0J9VHk/ffq/vFf8xFQUZigFZsXT50fWbZxlgYlN+gW
einQlfZy98LRCqyW9D+YD2Lfqx4o3pmTyezl/3EQUsyJalvIEOWFQD4GHk7/v82r
EBJwZW3w05KFSBT5zBWhdJsKd8H5TYLsW36BfAopfF5nfoY0GyoeWn1FvA8BEJLJ
oq7apQ4bUkOymNBkw0qf4e8FFurk3QIDAQABAoICAB0X82Nn72053hJm8e0CT3iP
S5lQzoiyI/1CHRaGIpgIkTjkqkzBSW0Oy/6m83mz+QvxUG3UmobjuLTimu6Q/MKM
zeAJChGYPmME/b+uMJXVodffWl3iBVxeGTQeFU9LS2BFDIdykdzPDA6vMNDVBefo
6X1wDGsoIQbg3GgfXY/XExOejLLZE+IhHDtjyUIsUlB5yEZnyDPHta4+mzZYAdX7
m04C/OaBYJXkDN0e9DYK1RGNky7HsPNFZXFz+cmyAU5Vhp7bcojH+/XCQj6tp5Uw
9/1OFwF1FTSuP8a4obFWfD91a38CDm4jpF2CaES2j+z/ne5stojWaMN4u8PNdt8V
75610PJCmXFrj98qvuXfhoe1iuej2KYjcEk1ILoWlp1oNZHOmuk+ECRPFeHldk1u
ry7zC0xbueVCJ+tuslK0aXvR7DlXa+ApVrriX5qg0apRwX0+UU8BcX7QJZ5OovaH
C7lytKTgrLwe4PkHXV7Z8hy0DKAi3Wu6o9x3ZBg5aZEkwGaaWKiQeWKAqrZphikf
DeXdZMTasEMj8yFp+aE4mbvdEuVjYRfEJ6q3J148iNGb92H84VKPJM9SVxwy/hCU
ejcoUwFB9HtbFZ3NKgg8+7VPtsVVPcWnqeqycf+QkBl7Gy0LNTNrDfqxNuaTVIB+
ILf3FfG93YOQfLFy/pDhAoIBAQD0EEDkN1bmvAPkMM6kuawRkDbBgH9gldPbKzuf
DWUhnLW9blttD6fTwlf3+wuXaI+m4/VE7wsOn9fKzF8RTybMu8a3hv0YZqubfwLh
1Ery4dc6+WoB9iMD0NjTGPhpXjywSMRdrg/7p9UZo9qu6PhnurA0YfQZN7yy2gLO
sPZAzKq3ep29mLqsYpOtk5JbMtdh7SN0lgW4n8vVC0GLPomiEJtSSRsaRAfw8bUH
ez5kzcI0Vc6C95EZ+XquIeav3HyVWiOHihVUtKDzpsPfGv8XFBtOxbO+64DI9EeY
1+liM9r/RN0jRkeyD3vs2wVWRAjUD6EmwPCkPLXjTuow3JulAoIBAQDWGuy0vJBl
fIi9mdI8+3Jq3rsnWGIUCLXxfP0SL1ubSKrtjpWp5BD7ABQICYjWyl/DIAlYil9B
CjMeNrUHALIU96g06n33a/UGqx1TyyCifA02aFsQxIcJ1N8d9CXFU8nSzDwMSZLP
9Gxy6MVeaBiXo0yn0+dpVTBokvQescr2J5BxMHjBLg5K5kFFFd71qGA3xsx+CSGt
fkHnWWqgKPuPqKqqtDI1YVjP7t30s9Pq/Pt0Pf/bDVdzEA74cRzEcUOADiG3fn0s
ikRYeeks0GB92sLQeyqJC51XwMXNtXjU3tttSlP6GKaBvwc+dTSzskLf9HvJUuCS
glK9lXIkBT7ZAoIBAFZjDmT5BYRkFkiF0g7SPYp17jutnOh1/+f6tH7Gwf4UtutX
DXtb6D528qYusNqlwvsCgwUkS1ig0UPR9PBugMBE0sCRQjKJ3MIMQdvnRaQUthcE
wzXwhlJKcQS/OOYq2fZXu1GhU7zymeYabkQs6AfnN4lDBqCKbvsrWYUJdBBZoS+S
chTy41gzCCyPKGWpaD0cL8mLdHj17rL46fk8aID5udB1WeeBHwJ0u2vrfpk1j0Dx
AkivEigMexT5oOqsc1h18E+AW66AxNuZMolcx9/GWSgXqFiyiQIYHOOHwO7mheSG
3nMm5CetfWLH32q6aBmPcq4B6utnJcZQX2puG5UCggEBALT3+Q8jOuGtC19G/v7w
gdt2+7Xb7LqGSlMdlEKkqMdt+pvkovgAf6HIhSXt+S2jzKF/GKcv/idZWa+2Cfkr
S1qRoiln8qUJKQhD5fwHe0QbmodcWWyo0IMs3JHS5YIOuk5ktnSkU2VWcbwGp5yO
XAr/yjEo2Tac/NfHLnQrTyQUePBTSh3uscH5MT4VqGj3sqwyanI1gbPFPisv1wIc
4dShee/jc3TPHWRTwGOvA/ZhcqDkLriWZE4rSpwP74LTQXyhdTpFvcPB8tbd5Isu
bgCywWu6T0+a85lSpV6kfsdevxV3d9eysjqEnrjaFHu2tvPZEDAwzwTHBuybvuhX
TrECggEBALn+0fXFGq1OZz6qSApb5Mvt+aYtO+teQQ2qqfXn9TVmsmfnkrHnvUAf
DDIfM+pyZSA2ajmP7a05uRD1JfvTAggjjIbGiK3ipDFIyHO7W8fSDHXnRywvHtdP
a4FLHO9cJXIWGRM36zC86OISn8R0JTk+IeABP+HAOItmn563uMnvtcoCAILFoaVU
WOXZABVczMsA5Coa6tTbxBOZx/DbC9mmmCy5qb5aDpC2D/VCGf/QyDOvCG+ndKfh
8Y/6CMXK1OfTNlf2/eBFnCEe3nehsfytByTbVKN/NMb/if3hAfulBgwQiivnH4lq
Uu+HkQyxGnVuk+AdkQ4VGeLliz+DRRk=
-----END PRIVATE KEY-----
