Certificate:
    Data:
        Version: 3 (0x2)
        Serial Number:
            f1:15:af:58:f7:d8:ab:93:70:22:cc:65:8c:15:81:58
        Signature Algorithm: sha256WithRSAEncryption
        Issuer: CN=FranceConnect CA
        Validity
            Not Before: Sep 23 14:37:13 2020 GMT
            Not After : Sep 23 14:37:13 2022 GMT
        Subject: CN=mongo4
        Subject Public Key Info:
            Public Key Algorithm: rsaEncryption
                RSA Public-Key: (2048 bit)
                Modulus:
                    00:d9:26:69:c9:4e:0f:99:1d:e2:8e:19:c7:ff:a0:
                    d6:ae:0e:48:b2:7a:0c:c0:83:ae:86:18:b5:95:43:
                    bf:c5:c2:3d:dc:6a:90:8d:3d:d7:c9:42:40:dc:11:
                    62:af:7d:a6:25:0d:02:93:2a:36:75:be:72:57:98:
                    a3:55:ba:eb:80:60:b4:ac:90:3d:f0:d8:ad:fb:3c:
                    99:44:9b:53:13:f3:3b:12:b9:f8:73:a5:4d:00:20:
                    1b:70:98:db:1d:cb:45:e8:27:c9:52:a1:42:91:c0:
                    1b:88:da:63:78:ab:a6:c8:ac:41:f3:02:31:80:fc:
                    06:98:7f:be:8c:23:9c:8d:ca:00:5c:4f:87:b7:4e:
                    e0:ad:b2:49:80:2c:71:36:8a:28:4e:6f:b9:7d:4c:
                    d2:c8:73:1a:5f:e5:42:e5:75:c5:d1:9b:75:2c:96:
                    8f:18:4b:e0:9e:5f:92:32:d3:32:1d:83:a0:fc:7d:
                    8c:4b:53:b9:8f:87:fb:86:65:84:2f:db:55:b4:48:
                    94:02:6c:2a:44:52:6f:41:3e:82:5a:53:5a:72:55:
                    a4:8c:81:44:de:c4:31:0e:52:21:37:c9:ed:c4:a7:
                    89:6e:74:4e:2b:5f:ff:97:d4:0b:a8:c7:96:46:13:
                    c8:da:3f:68:a7:cb:24:e3:12:48:b8:c6:38:ff:d9:
                    d0:7d
                Exponent: 65537 (0x10001)
        X509v3 extensions:
            X509v3 Basic Constraints: 
                CA:FALSE
            X509v3 Subject Key Identifier: 
                02:61:55:CE:B9:82:CB:95:DC:B8:61:7C:B7:DE:66:D0:6E:89:D5:71
            X509v3 Authority Key Identifier: 
                keyid:3A:05:71:03:47:7C:7D:D9:CC:F5:80:FD:DC:38:55:5B:A9:D0:5A:D5
                DirName:/CN=FranceConnect CA
                serial:38:EE:AD:D0:E2:2D:9D:F0:2A:4F:22:27:7F:39:26:D8:75:50:22:7E

            X509v3 Extended Key Usage: 
                TLS Web Server Authentication, TLS Web Client Authentication
            X509v3 Key Usage: 
                Digital Signature, Key Encipherment
            X509v3 Subject Alternative Name: 
                DNS:mongo4
    Signature Algorithm: sha256WithRSAEncryption
         45:ce:61:9e:b5:83:c1:c3:3d:5c:a6:d1:74:2a:ce:35:69:77:
         c8:8b:30:d8:ae:07:82:ac:6c:8f:82:81:5a:dd:0d:9a:b7:2e:
         61:14:b0:48:42:2d:42:52:4e:35:b9:63:fe:f9:f0:c7:29:76:
         a1:d8:35:c5:54:9c:c0:16:58:0a:5b:fe:bb:58:52:c1:9d:9f:
         96:11:00:1c:90:05:c5:bd:3f:61:02:9f:d1:8b:7c:68:04:b2:
         e6:9a:05:c0:eb:f5:01:6a:41:40:61:d7:ca:b1:8f:d2:92:8c:
         1d:67:07:f7:22:69:12:3f:84:be:89:d9:c9:46:1a:ea:a7:64:
         2f:a7:d6:14:c9:f0:ef:34:eb:3c:06:e4:2f:c9:6c:92:27:9d:
         6e:b8:70:90:4f:7c:42:82:ff:9e:4f:c7:83:12:c8:a8:86:39:
         83:c9:e2:33:be:68:0b:0d:1b:c6:1f:5c:8a:9d:cf:a7:76:39:
         c3:81:85:c5:84:14:04:47:bf:65:6c:bd:ec:f1:8d:d9:51:66:
         51:76:71:93:24:3a:4a:f5:6d:1c:ae:99:43:aa:ed:e0:19:0f:
         b9:ad:c1:67:ee:2d:2a:b9:1c:59:18:fe:b2:7b:bb:b7:91:13:
         b1:01:f2:af:a7:56:6b:9e:57:32:e2:38:7e:a3:4b:f3:48:20:
         54:38:a8:a1
-----BEGIN CERTIFICATE-----
MIIDfDCCAmSgAwIBAgIRAPEVr1j32KuTcCLMZYwVgVgwDQYJKoZIhvcNAQELBQAw
GzEZMBcGA1UEAwwQRnJhbmNlQ29ubmVjdCBDQTAeFw0yMDA5MjMxNDM3MTNaFw0y
MjA5MjMxNDM3MTNaMBExDzANBgNVBAMMBm1vbmdvNDCCASIwDQYJKoZIhvcNAQEB
BQADggEPADCCAQoCggEBANkmaclOD5kd4o4Zx/+g1q4OSLJ6DMCDroYYtZVDv8XC
PdxqkI0918lCQNwRYq99piUNApMqNnW+cleYo1W664BgtKyQPfDYrfs8mUSbUxPz
OxK5+HOlTQAgG3CY2x3LRegnyVKhQpHAG4jaY3irpsisQfMCMYD8Bph/vowjnI3K
AFxPh7dO4K2ySYAscTaKKE5vuX1M0shzGl/lQuV1xdGbdSyWjxhL4J5fkjLTMh2D
oPx9jEtTuY+H+4ZlhC/bVbRIlAJsKkRSb0E+glpTWnJVpIyBRN7EMQ5SITfJ7cSn
iW50Titf/5fUC6jHlkYTyNo/aKfLJOMSSLjGOP/Z0H0CAwEAAaOBxDCBwTAJBgNV
HRMEAjAAMB0GA1UdDgQWBBQCYVXOuYLLldy4YXy33mbQbonVcTBWBgNVHSMETzBN
gBQ6BXEDR3x92cz1gP3cOFVbqdBa1aEfpB0wGzEZMBcGA1UEAwwQRnJhbmNlQ29u
bmVjdCBDQYIUOO6t0OItnfAqTyInfzkm2HVQIn4wHQYDVR0lBBYwFAYIKwYBBQUH
AwEGCCsGAQUFBwMCMAsGA1UdDwQEAwIFoDARBgNVHREECjAIggZtb25nbzQwDQYJ
KoZIhvcNAQELBQADggEBAEXOYZ61g8HDPVym0XQqzjVpd8iLMNiuB4KsbI+CgVrd
DZq3LmEUsEhCLUJSTjW5Y/758McpdqHYNcVUnMAWWApb/rtYUsGdn5YRAByQBcW9
P2ECn9GLfGgEsuaaBcDr9QFqQUBh18qxj9KSjB1nB/ciaRI/hL6J2clGGuqnZC+n
1hTJ8O806zwG5C/JbJInnW64cJBPfEKC/55Px4MSyKiGOYPJ4jO+aAsNG8YfXIqd
z6d2OcOBhcWEFARHv2VsvezxjdlRZlF2cZMkOkr1bRyumUOq7eAZD7mtwWfuLSq5
HFkY/rJ7u7eRE7EB8q+nVmueVzLiOH6jS/NIIFQ4qKE=
-----END CERTIFICATE-----
-----BEGIN PRIVATE KEY-----
MIIEvwIBADANBgkqhkiG9w0BAQEFAASCBKkwggSlAgEAAoIBAQDZJmnJTg+ZHeKO
Gcf/oNauDkiyegzAg66GGLWVQ7/Fwj3capCNPdfJQkDcEWKvfaYlDQKTKjZ1vnJX
mKNVuuuAYLSskD3w2K37PJlEm1MT8zsSufhzpU0AIBtwmNsdy0XoJ8lSoUKRwBuI
2mN4q6bIrEHzAjGA/AaYf76MI5yNygBcT4e3TuCtskmALHE2iihOb7l9TNLIcxpf
5ULldcXRm3Uslo8YS+CeX5Iy0zIdg6D8fYxLU7mPh/uGZYQv21W0SJQCbCpEUm9B
PoJaU1pyVaSMgUTexDEOUiE3ye3Ep4ludE4rX/+X1Auox5ZGE8jaP2inyyTjEki4
xjj/2dB9AgMBAAECggEBAM+qx9JHf+1LwkVpbHYQiB5O9MESra1SgY4mhUlpUDY8
69Ima3VX5kzHuqV7TuhLfp/CUGsTHJ//8PPKurGbH+tXEJJTI5l4bvJs4prU/F+A
5kajaXKXbAspqXRGCo70vjcmDYejRrmCghKf4C8f4VHaQvu2ZkdXPquKx1zYFbkV
6UagHQI+YdIrnzIxvyaR3JTfX9B9jvIFrKUzS/6yxPoaQ4Z8LnXt4UYzPE9CeNR4
Pz3Pc7trDm3OAKkTY4IcNq+T2sfZy9o+UdQ0PC4gge/BTPfiCe6v9PzkYgo9kWX8
cQAJl7G/km1NkJVIJ8F4BI9Kf4JYvFf9Vk/VxDXU/BUCgYEA9z9XhGHLXAASEu0o
s8S/gJH8Zj1kTsfKPxhbymwo/8ikdy/ntj1+2nDlRG9WK9+2HDvBlHPdC/7RI24P
ol+2q/C0aMXhzvlnvApQKQOGAW9tqktaq7zrsIxtjdLBkX+OqPPH08aVVnGc04if
8xNResGy5i5dhnXF9BGJu6TVlMcCgYEA4NZRB4cFaUS/r/S74xYnhnsPlvCIC22Q
U3bR9FehvfK3GEGCU1ig5+s7csvc1N8dOMm1k+Fzgk1am9O28PCz0M8l7NFAwhF5
kdI1pLnzvP4B/1KbsOv8s2GZSx+6NkLC7wKW2OvfA25O6xhvosyts9EMYLMgMGXq
Iej4Bic9ZJsCgYEA6bj3Ai1wD4gBjeKil01luiRGdF+UcuRqSzq7ip60IxeIYSLn
5146jEQsdoTI8LCJdicG106vpqc7DEL+hH/2LpNb968Xxo/9f8RAAoVSKAktoc2Z
6L6uDjaxWV/hm6j5Mr1AKPGQOicsGMsOaLnaTDDO7MjnoDO07QOnL7qiLAECgYBq
rWU+1BJ+Mu9cVhs7kMxqI0NvU2rJOU/sOgk+DMIiNOIosRRb5UZbI6JOQmnh2oar
5hCwPJ0oqvkdzGMViK9YmKCe713xdoce6AUpxkzeVAqwkQpr9Fwu5FTubvxUOHLz
ImBeRfPHVfQ92ZdGQCT+l2ZvDy5rqD9hnX7otH+NlwKBgQDD8I7XAHTow0+hTDfc
r8V3b7Vpgpyj80Imv/9pvXsPukBkuUq0mLb+TCImoRCpUCJFfSiNdR720TzPmC1J
2gdPpfY5TJYkFXYDbunw30+2JCo43tk0/bFVi1jE1/9suoQdKRf+O9lD4sgoxT2P
nXInMcDPrTM2em3j8VouvlKKBA==
-----END PRIVATE KEY-----
