Certificate:
    Data:
        Version: 3 (0x2)
        Serial Number:
            67:b8:35:c2:2e:00:54:6e:7f:0c:fa:c4:32:70:ea:51
        Signature Algorithm: sha256WithRSAEncryption
        Issuer: CN=FranceConnect CA
        Validity
            Not Before: Apr 15 09:18:22 2021 GMT
            Not After : Apr 15 09:18:22 2023 GMT
        Subject: CN=mongo-fcp-low
        Subject Public Key Info:
            Public Key Algorithm: rsaEncryption
                RSA Public-Key: (2048 bit)
                Modulus:
                    00:c1:3d:60:79:ec:88:c7:7c:20:74:f2:4c:d2:e7:
                    ae:f5:22:c0:db:02:4d:9b:90:c5:7c:dc:85:30:4f:
                    cd:e4:a8:5c:17:a8:b4:90:8f:99:ed:0f:b6:15:2b:
                    93:26:2b:1b:e2:2c:d6:fb:45:e1:22:c1:ba:74:cc:
                    03:c8:d8:26:b2:17:0d:55:c9:25:ef:ad:a0:89:c4:
                    67:c2:fb:ca:6f:ea:cc:0f:b7:20:7e:42:f7:9f:16:
                    97:36:73:25:d8:25:72:9b:95:11:89:a1:10:df:d9:
                    41:d0:02:6b:9f:f2:9a:fe:e9:2a:06:82:2b:4a:9a:
                    85:be:8d:c2:b0:f2:fe:70:da:64:db:07:8a:2f:0f:
                    1e:26:24:a6:29:1e:e4:cb:7c:81:a0:36:12:4d:5c:
                    54:7e:76:d4:fb:11:d1:0c:69:b3:70:c2:45:63:77:
                    fb:76:5e:f2:a6:c9:88:a6:6c:16:5d:f7:d6:fd:13:
                    c9:68:fd:e3:da:32:9a:d7:22:72:1b:05:af:c6:d5:
                    13:2c:cc:d7:01:77:ae:70:9b:72:0e:5a:47:1a:95:
                    f3:b0:8e:87:02:5c:6c:42:3a:87:da:9c:93:2e:8f:
                    49:f6:9b:ff:a3:93:8e:84:db:65:c1:9d:e5:e9:7f:
                    b5:21:27:2c:35:7b:14:20:e1:db:cf:ce:03:38:b6:
                    96:bd
                Exponent: 65537 (0x10001)
        X509v3 extensions:
            X509v3 Basic Constraints: 
                CA:FALSE
            X509v3 Subject Key Identifier: 
                B3:DA:40:FC:F4:FD:2B:15:68:2F:CF:44:D6:75:A3:CD:2F:48:77:12
            X509v3 Authority Key Identifier: 
                keyid:3A:05:71:03:47:7C:7D:D9:CC:F5:80:FD:DC:38:55:5B:A9:D0:5A:D5
                DirName:/CN=FranceConnect CA
                serial:38:EE:AD:D0:E2:2D:9D:F0:2A:4F:22:27:7F:39:26:D8:75:50:22:7E

            X509v3 Extended Key Usage: 
                TLS Web Server Authentication, TLS Web Client Authentication
            X509v3 Key Usage: 
                Digital Signature, Key Encipherment
            X509v3 Subject Alternative Name: 
                DNS:mongo-fcp-low
    Signature Algorithm: sha256WithRSAEncryption
         3a:8f:1d:e9:75:99:ed:c7:8a:b2:6d:15:6e:0f:6e:76:f1:44:
         a3:40:e9:ce:5b:a6:be:c4:cb:4e:60:43:1b:7b:9d:be:81:85:
         58:80:e5:49:11:a3:ec:ba:a4:3f:55:66:4c:ce:74:57:d7:6c:
         44:47:1a:33:7a:18:f2:e6:03:5a:35:d9:6f:79:5a:15:27:73:
         34:a8:56:0c:de:27:39:cc:97:6d:02:28:30:89:e2:64:ad:43:
         0e:8a:99:e0:54:64:d7:7a:b4:9d:2e:ef:43:d0:4c:1f:b0:12:
         16:6e:2f:c7:a8:d3:be:69:97:cb:b8:74:79:bb:14:2b:ea:0d:
         13:ad:4f:57:11:27:22:66:1c:4d:56:ef:fd:ae:b4:1a:02:e3:
         42:bf:b6:fd:1c:6d:00:18:26:88:fd:e8:89:9b:82:e9:ea:b6:
         2e:c0:20:21:4f:b1:04:67:ff:1f:65:cb:53:4e:bc:8e:73:ae:
         2e:37:76:d6:44:90:30:dd:39:df:a5:0c:32:78:53:65:b0:23:
         8c:aa:c9:bc:f8:6f:e4:01:80:81:2b:3c:52:52:2f:ce:0c:88:
         d3:be:87:a4:ac:30:39:28:b4:21:90:91:be:f4:b5:3f:db:a6:
         14:b0:95:bb:68:ac:1d:a7:ed:cd:28:e1:7e:e1:df:31:49:01:
         f4:4b:05:e5
-----BEGIN CERTIFICATE-----
MIIDiTCCAnGgAwIBAgIQZ7g1wi4AVG5/DPrEMnDqUTANBgkqhkiG9w0BAQsFADAb
MRkwFwYDVQQDDBBGcmFuY2VDb25uZWN0IENBMB4XDTIxMDQxNTA5MTgyMloXDTIz
MDQxNTA5MTgyMlowGDEWMBQGA1UEAwwNbW9uZ28tZmNwLWxvdzCCASIwDQYJKoZI
hvcNAQEBBQADggEPADCCAQoCggEBAME9YHnsiMd8IHTyTNLnrvUiwNsCTZuQxXzc
hTBPzeSoXBeotJCPme0PthUrkyYrG+Is1vtF4SLBunTMA8jYJrIXDVXJJe+toInE
Z8L7ym/qzA+3IH5C958WlzZzJdglcpuVEYmhEN/ZQdACa5/ymv7pKgaCK0qahb6N
wrDy/nDaZNsHii8PHiYkpike5Mt8gaA2Ek1cVH521PsR0Qxps3DCRWN3+3Ze8qbJ
iKZsFl331v0TyWj949oymtcichsFr8bVEyzM1wF3rnCbcg5aRxqV87COhwJcbEI6
h9qcky6PSfab/6OTjoTbZcGd5el/tSEnLDV7FCDh28/OAzi2lr0CAwEAAaOByzCB
yDAJBgNVHRMEAjAAMB0GA1UdDgQWBBSz2kD89P0rFWgvz0TWdaPNL0h3EjBWBgNV
HSMETzBNgBQ6BXEDR3x92cz1gP3cOFVbqdBa1aEfpB0wGzEZMBcGA1UEAwwQRnJh
bmNlQ29ubmVjdCBDQYIUOO6t0OItnfAqTyInfzkm2HVQIn4wHQYDVR0lBBYwFAYI
KwYBBQUHAwEGCCsGAQUFBwMCMAsGA1UdDwQEAwIFoDAYBgNVHREEETAPgg1tb25n
by1mY3AtbG93MA0GCSqGSIb3DQEBCwUAA4IBAQA6jx3pdZntx4qybRVuD2528USj
QOnOW6a+xMtOYEMbe52+gYVYgOVJEaPsuqQ/VWZMznRX12xERxozehjy5gNaNdlv
eVoVJ3M0qFYM3ic5zJdtAigwieJkrUMOipngVGTXerSdLu9D0EwfsBIWbi/HqNO+
aZfLuHR5uxQr6g0TrU9XESciZhxNVu/9rrQaAuNCv7b9HG0AGCaI/eiJm4Lp6rYu
wCAhT7EEZ/8fZctTTryOc64uN3bWRJAw3TnfpQwyeFNlsCOMqsm8+G/kAYCBKzxS
Ui/ODIjTvoekrDA5KLQhkJG+9LU/26YUsJW7aKwdp+3NKOF+4d8xSQH0SwXl
-----END CERTIFICATE-----
-----BEGIN PRIVATE KEY-----
MIIEvAIBADANBgkqhkiG9w0BAQEFAASCBKYwggSiAgEAAoIBAQDBPWB57IjHfCB0
8kzS5671IsDbAk2bkMV83IUwT83kqFwXqLSQj5ntD7YVK5MmKxviLNb7ReEiwbp0
zAPI2CayFw1VySXvraCJxGfC+8pv6swPtyB+QvefFpc2cyXYJXKblRGJoRDf2UHQ
Amuf8pr+6SoGgitKmoW+jcKw8v5w2mTbB4ovDx4mJKYpHuTLfIGgNhJNXFR+dtT7
EdEMabNwwkVjd/t2XvKmyYimbBZd99b9E8lo/ePaMprXInIbBa/G1RMszNcBd65w
m3IOWkcalfOwjocCXGxCOofanJMuj0n2m/+jk46E22XBneXpf7UhJyw1exQg4dvP
zgM4tpa9AgMBAAECggEAdkLFxFhJ7Su+AVQ4R+qaXFOEi4QBUu9qrVuX91UfwIx4
r9IDj2US4s32tUYRrA495lFi0CyX99lv7wLcXhJKvDr3YkTT/rbXxPh6OA44ef3M
HOIJ9LuvJ6F/sUcPJhTk6upz7TKxTQ19BXw1uZGT4eV4XrtTGzkuGMxRFlHf/dfY
xG7UqjayvmShJL5L2sxrtw/GRj0XxgpPh+vblomcvnSZjayuYhL26fmeBN5XksUf
V7il+xZQ1FFIDXUjcPSXtACLd++33oiidC0UkHhGlTE01DTR+w9cnEi1WWXG1BDL
cizVO+R1D7l5mBfefyBj90+DUKynM2F9IEq+CjWC0QKBgQD1o4bdMu+n8hlu+m/K
TcGxUdEYzEsXYL7lsKYbE5L7YmlYruzye2NkBbudlasCxlmEE6j8W/EsJe6wHzYt
zcMYVKukxoxBhnnHTy7w4+s/DAg4a9uI20ixuFkUIVWN3hGGhMbwLS7xLctjzCgc
t2FJhnDWrnSdHyUk9xBeWWCH+wKBgQDJZAgI0D0zBish4XTC3IzkjkA6Fb0gZjAZ
dCr+IhBSVwANCeETDC6WYnLkxNkZM7YA0vMtVI9v62YgSmmeXK5Ae7wCK4/Bybn1
WJ/++ROpbencOE5cY3mZh3jq3SDtTa9sq8/A8ycNmVm7ouIfjFpL5YwQPCSRGWzz
s4r5u0oGpwKBgBr8fDSRBANPdbvbh6ySHlV8x5wR1a4b0t0pKxaOb/duOGSl0yJQ
q/qxJouJheAoKm14O3h+IWDYSgDPbQRbNrPVmYXgykfonjhnWqDcaVvj1oNcViIS
9UmRFzg+8UdEvmgo7jI0xJN6lH3CUCXXf7i0LHFpeSZJ5arJ+eJjr1dBAoGAbJ87
hiVrHN4y3W9RHtj+VTg0hB+9hoAXaWMy3SdaTk8GhAHUGAX2Cr7G4YUa43D0tbUR
3F1DkEYTK093cCblBXq3iSQdwZQgbKiEg22soTHbdSAZg9NTfu+G1Ia4f8Xq3F4/
C/8aDUetEntkI0f8W/tPdGI8BtcD4N3yE4hlAPkCgYA723IdyiDJztoJtHnWSl8j
8B5yyK74EdwkYRkGtj4l/Tz61m2Jherhzr0E/cDVTAL5EsegBxEgPOD9t2bmEfmZ
9Do+b++CzfDkF+lmvrzPF4lvdiLbocFWxp+8B4rdVPdR6/7hD1+8FWeGOBZySV2a
bjzF0i4ijrBFmMo2gLzhHA==
-----END PRIVATE KEY-----
