Certificate:
    Data:
        Version: 3 (0x2)
        Serial Number:
            b7:ed:c9:d3:ef:be:97:ba:77:18:6a:7d:c0:81:14:4b
        Signature Algorithm: sha256WithRSAEncryption
        Issuer: CN=FranceConnect CA
        Validity
            Not Before: Dec  7 15:32:09 2020 GMT
            Not After : Dec  7 15:32:09 2022 GMT
        Subject: CN=mongo-fca
        Subject Public Key Info:
            Public Key Algorithm: rsaEncryption
                RSA Public-Key: (2048 bit)
                Modulus:
                    00:c9:d1:18:35:3d:88:d0:26:77:e6:27:4f:bc:0a:
                    24:4a:b2:0d:fb:37:9c:6b:a5:58:92:6e:6c:9d:9a:
                    3f:30:11:24:bc:de:36:f4:1f:a8:84:f8:22:59:7d:
                    ff:74:70:cd:80:1f:97:b1:84:e7:1b:60:4f:fe:72:
                    9e:c5:a1:5d:11:4d:86:f1:2b:ef:93:e8:bc:8f:66:
                    19:42:81:98:7c:99:11:a7:7e:21:17:5a:ab:18:32:
                    cf:de:31:03:28:07:a4:f5:17:65:0b:81:e8:a0:e0:
                    04:46:04:6d:d7:79:6c:9d:56:55:c2:a6:a6:28:93:
                    d8:80:af:e8:51:91:27:d3:6c:17:ce:ed:00:d5:ec:
                    44:ef:d0:4c:a3:c5:ea:d0:69:b0:7b:81:9c:d4:60:
                    78:c0:86:18:19:e9:6e:af:80:c9:d6:bf:11:ed:39:
                    6b:6e:fe:0e:31:f4:14:ae:4d:1f:6c:88:2b:8f:35:
                    de:e0:ad:2b:c6:d8:5d:f5:06:87:81:f6:c3:0d:52:
                    ca:3d:63:c7:8a:80:d6:3f:c1:1a:f5:48:b8:0f:3c:
                    49:3c:41:c8:6b:7e:f4:58:ba:6b:ba:a0:09:17:11:
                    30:f0:5b:f0:4b:51:9a:a9:f5:f1:be:b0:94:88:a9:
                    46:45:3a:ba:36:61:c2:9f:04:31:47:27:5d:ab:e5:
                    5e:11
                Exponent: 65537 (0x10001)
        X509v3 extensions:
            X509v3 Basic Constraints: 
                CA:FALSE
            X509v3 Subject Key Identifier: 
                0E:C8:81:D3:8C:9B:7C:CF:B1:56:2A:24:E5:DE:F4:63:1C:28:DD:21
            X509v3 Authority Key Identifier: 
                keyid:3A:05:71:03:47:7C:7D:D9:CC:F5:80:FD:DC:38:55:5B:A9:D0:5A:D5
                DirName:/CN=FranceConnect CA
                serial:38:EE:AD:D0:E2:2D:9D:F0:2A:4F:22:27:7F:39:26:D8:75:50:22:7E

            X509v3 Extended Key Usage: 
                TLS Web Server Authentication
            X509v3 Key Usage: 
                Digital Signature, Key Encipherment
            X509v3 Subject Alternative Name: 
                DNS:mongo-fca
    Signature Algorithm: sha256WithRSAEncryption
         32:31:ee:be:e7:f8:06:17:32:7e:53:9b:57:25:bf:04:0b:e6:
         04:32:4b:1b:c7:9a:49:a5:fd:97:f7:c4:6f:d5:12:b3:e7:fc:
         2b:58:05:24:df:46:ac:8f:03:fe:c7:11:8a:0c:ca:5f:8b:c6:
         02:8e:87:5b:13:f9:63:ce:a0:0a:06:d6:c4:27:d9:a1:b9:2a:
         ba:7d:30:39:3e:ea:e4:e0:9b:b8:ab:20:de:55:01:4b:c5:73:
         6a:48:cd:bf:1a:98:40:2b:18:ad:39:ee:5a:b2:e7:23:0f:bb:
         99:60:bb:cb:b1:d9:6b:e1:77:d8:fe:3d:7d:e7:3a:ea:5c:c7:
         dd:88:af:8a:a7:37:78:df:bc:c3:b0:28:14:09:26:56:bc:ee:
         2a:af:71:df:3e:9e:3a:d4:ec:f2:81:36:54:b9:b0:00:8e:c8:
         30:9f:62:82:13:63:66:b4:b5:98:c0:f7:27:5a:5f:17:d4:c5:
         9b:f3:4c:26:cb:07:52:b6:13:6d:32:a3:6f:f6:59:7f:2c:b3:
         8f:3d:f5:f0:c0:74:ef:d1:4f:f3:8d:80:02:fe:a8:96:8d:8b:
         a5:5f:65:a1:4b:03:ae:ce:7b:a8:07:5b:5b:fe:df:cd:59:b2:
         da:a6:a1:04:2e:f2:f7:a9:08:2d:15:cf:76:60:0a:45:65:b0:
         ab:d1:57:3b
-----BEGIN CERTIFICATE-----
MIIDeDCCAmCgAwIBAgIRALftydPvvpe6dxhqfcCBFEswDQYJKoZIhvcNAQELBQAw
GzEZMBcGA1UEAwwQRnJhbmNlQ29ubmVjdCBDQTAeFw0yMDEyMDcxNTMyMDlaFw0y
MjEyMDcxNTMyMDlaMBQxEjAQBgNVBAMMCW1vbmdvLWZjYTCCASIwDQYJKoZIhvcN
AQEBBQADggEPADCCAQoCggEBAMnRGDU9iNAmd+YnT7wKJEqyDfs3nGulWJJubJ2a
PzARJLzeNvQfqIT4Ill9/3RwzYAfl7GE5xtgT/5ynsWhXRFNhvEr75PovI9mGUKB
mHyZEad+IRdaqxgyz94xAygHpPUXZQuB6KDgBEYEbdd5bJ1WVcKmpiiT2ICv6FGR
J9NsF87tANXsRO/QTKPF6tBpsHuBnNRgeMCGGBnpbq+Ayda/Ee05a27+DjH0FK5N
H2yIK4813uCtK8bYXfUGh4H2ww1Syj1jx4qA1j/BGvVIuA88STxByGt+9Fi6a7qg
CRcRMPBb8EtRmqn18b6wlIipRkU6ujZhwp8EMUcnXavlXhECAwEAAaOBvTCBujAJ
BgNVHRMEAjAAMB0GA1UdDgQWBBQOyIHTjJt8z7FWKiTl3vRjHCjdITBWBgNVHSME
TzBNgBQ6BXEDR3x92cz1gP3cOFVbqdBa1aEfpB0wGzEZMBcGA1UEAwwQRnJhbmNl
Q29ubmVjdCBDQYIUOO6t0OItnfAqTyInfzkm2HVQIn4wEwYDVR0lBAwwCgYIKwYB
BQUHAwEwCwYDVR0PBAQDAgWgMBQGA1UdEQQNMAuCCW1vbmdvLWZjYTANBgkqhkiG
9w0BAQsFAAOCAQEAMjHuvuf4BhcyflObVyW/BAvmBDJLG8eaSaX9l/fEb9USs+f8
K1gFJN9GrI8D/scRigzKX4vGAo6HWxP5Y86gCgbWxCfZobkqun0wOT7q5OCbuKsg
3lUBS8VzakjNvxqYQCsYrTnuWrLnIw+7mWC7y7HZa+F32P49fec66lzH3Yiviqc3
eN+8w7AoFAkmVrzuKq9x3z6eOtTs8oE2VLmwAI7IMJ9ighNjZrS1mMD3J1pfF9TF
m/NMJssHUrYTbTKjb/ZZfyyzjz318MB079FP842AAv6olo2LpV9loUsDrs57qAdb
W/7fzVmy2qahBC7y96kILRXPdmAKRWWwq9FXOw==
-----END CERTIFICATE-----
-----BEGIN PRIVATE KEY-----
MIIEvgIBADANBgkqhkiG9w0BAQEFAASCBKgwggSkAgEAAoIBAQDJ0Rg1PYjQJnfm
J0+8CiRKsg37N5xrpViSbmydmj8wESS83jb0H6iE+CJZff90cM2AH5exhOcbYE/+
cp7FoV0RTYbxK++T6LyPZhlCgZh8mRGnfiEXWqsYMs/eMQMoB6T1F2ULgeig4ARG
BG3XeWydVlXCpqYok9iAr+hRkSfTbBfO7QDV7ETv0EyjxerQabB7gZzUYHjAhhgZ
6W6vgMnWvxHtOWtu/g4x9BSuTR9siCuPNd7grSvG2F31BoeB9sMNUso9Y8eKgNY/
wRr1SLgPPEk8QchrfvRYumu6oAkXETDwW/BLUZqp9fG+sJSIqUZFOro2YcKfBDFH
J12r5V4RAgMBAAECggEBAK0v8kY9+Bon6Nxo/9OuIFa5VaYvotv9mHSQrkTRCUiG
bbBmQWJdiJATH+cMaRvTcYZxlguQsYKctAj286lFQEiI7zQnMAENyEKGq0aXT/Qc
pznE00DnXcv2Tsut47eGV9i7qsqlQKxNkV1Ej75JRRv/6riPqidIOJK2YfcdSb/z
iyGAt7wwcXUddXt9tyP+tRY8MVWkhKrXfBZnhJG5OLO8JZmW3by8Eqvlvz/TAAzl
acFj70JxYcDrKRf6+N9pnaY+Qu9C3kVmzW2yz6LPeZ4nuMeyXttpGp1cpRDdRdJc
zuThbyMP1RXDOQg2qf801/QTpaAxgCKZeHk2AQfJQAECgYEA+AAHV1U7n/7C7yg5
rvEu68wkcgKeY8PtGoWdX8Tmwt6Oxnw0stx7+GC8f6jZLT66OqUaalX9vwgPrljZ
oR/QPgKkmXi8xCQAiT7mLaDjwyFusngzIbwBvQ0V40hrq71T8HRGGboFe0lkDmpT
UHkhmUb9Ez3p5Wr+0ZLeIyQ07lECgYEA0FOvua9o/VUzCxIAYwwREVpv/veH1+J4
Ch2jsk52cDlG+bME5/f9UUifBhogaOS6+Yzk+ZMO0F4BhW1A/1EraahzTS71dpS5
wFjCwmgisnH8GKAse1x/qjFj/nF3MVzJQ2PnbTvfIXa+1H4rqHeu5h/onVblsPnu
Ybs2PvuWw8ECgYEA9PkKR2FhOYUtR5KDkGSbxb5sjdY6YTAraVRtBSn6DKpNfJE6
eSfEqa/c43mFteTNjpqCgmGY+nfbDYykxT0otehkcVlLlbA+e1QPiSjxc1H2CAMl
9v/A898WLOHfwdCONuqUSFtxiLwRQxASZl6RKthtqvEwtzc+qQQbu7jLNFECgYAV
DmBUhEY4VMQz+j3PxQh0mI95VcuFJn67hwNkokmWTjO+STnVuFsCPDTWiQ19jKDZ
WERMdXCp3taIheJr6+hXZY9B3d0xfxbHOjF1NNFM9/hjBM16Kn881IEm1pEVjCtL
hG1/vO1wlG/1SktfW7lxyQfZ306X9KsDdcil1QgIAQKBgF3g42FKK7/smtobWy2d
QJDv83oHqPd+Qug7uJG9dgoWZK2aS3/6wpZVagBy62Zgs27ME9r+mcgGpMuizzNQ
kwteuRNljQwqu7F4KRyEGKleC/orYUBWNNQishr618WIvcGY3Yo0NQC5wX8Ts0RX
qtlw4kHAguc1hatdfPYMFz0q
-----END PRIVATE KEY-----

